; Function Attrs: mustprogress uwtable
define noundef nonnull align 8 dereferenceable(8) ptr @_ZN7rocksdb18SharedCleanablePtraSERKS0_(ptr noundef nonnull returned align 8 dereferenceable(8) %0, ptr noundef nonnull readonly align 8 dereferenceable(8) %1) local_unnamed_addr #5 align 2 personality ptr @__gxx_personality_v0 {
  %.not = icmp eq ptr %0, %1
  br i1 %.not, label %30, label %3

3:                                                ; preds = %2
  %4 = load ptr, ptr %0, align 8, !tbaa !25
  %.not.i = icmp eq ptr %4, null
  br i1 %.not.i, label %_ZN7rocksdb18SharedCleanablePtr5ResetEv.exit, label %5

5:                                                ; preds = %3
  %6 = getelementptr inbounds nuw i8, ptr %4, i64 32
  %7 = atomicrmw sub ptr %6, i32 1 monotonic, align 4
  %.not.i.i = icmp eq i32 %7, 1
  br i1 %.not.i.i, label %8, label %_ZN7rocksdb18SharedCleanablePtr4Impl5UnrefEv.exit.i

8:                                                ; preds = %5
  %9 = load ptr, ptr %4, align 8, !tbaa !4
  %.not.i.i.i.i = icmp eq ptr %9, null
  br i1 %.not.i.i.i.i, label %_ZN7rocksdb9CleanableD2Ev.exit.i.i, label %10

10:                                               ; preds = %8
  %11 = getelementptr inbounds nuw i8, ptr %4, i64 8
  %12 = load ptr, ptr %11, align 8, !tbaa !21
  %13 = getelementptr inbounds nuw i8, ptr %4, i64 16
  %14 = load ptr, ptr %13, align 8, !tbaa !22
  invoke void %9(ptr noundef %12, ptr noundef %14)
          to label %.noexc.i.i.i unwind label %.loopexit.split-lp.i.i.i

.noexc.i.i.i:                                     ; preds = %10
  %15 = getelementptr inbounds nuw i8, ptr %4, i64 24
  %16 = load ptr, ptr %15, align 8, !tbaa !11
  %.not910.i.i.i.i = icmp eq ptr %16, null
  br i1 %.not910.i.i.i.i, label %_ZN7rocksdb9CleanableD2Ev.exit.i.i, label %.lr.ph.i.i.i.i

.lr.ph.i.i.i.i:                                   ; preds = %.noexc.i.i.i, %.noexc1.i.i.i
  %.011.i.i.i.i = phi ptr [ %23, %.noexc1.i.i.i ], [ %16, %.noexc.i.i.i ]
  %17 = load ptr, ptr %.011.i.i.i.i, align 8, !tbaa !18
  %18 = getelementptr inbounds nuw i8, ptr %.011.i.i.i.i, i64 8
  %19 = load ptr, ptr %18, align 8, !tbaa !15
  %20 = getelementptr inbounds nuw i8, ptr %.011.i.i.i.i, i64 16
  %21 = load ptr, ptr %20, align 8, !tbaa !16
  invoke void %17(ptr noundef %19, ptr noundef %21)
          to label %.noexc1.i.i.i unwind label %.loopexit.i.i.i

.noexc1.i.i.i:                                    ; preds = %.lr.ph.i.i.i.i
  %22 = getelementptr inbounds nuw i8, ptr %.011.i.i.i.i, i64 24
  %23 = load ptr, ptr %22, align 8, !tbaa !17
  tail call void @_ZdlPvm(ptr noundef nonnull %.011.i.i.i.i, i64 noundef 32) #14
  %.not9.i.i.i.i = icmp eq ptr %23, null
  br i1 %.not9.i.i.i.i, label %_ZN7rocksdb9CleanableD2Ev.exit.i.i, label %.lr.ph.i.i.i.i, !llvm.loop !28

.loopexit.i.i.i:                                  ; preds = %.lr.ph.i.i.i.i
  %lpad.loopexit.i.i.i = landingpad { ptr, i32 }
          catch ptr null
  br label %24

.loopexit.split-lp.i.i.i:                         ; preds = %10
  %lpad.loopexit.split-lp.i.i.i = landingpad { ptr, i32 }
          catch ptr null
  br label %24

24:                                               ; preds = %.loopexit.split-lp.i.i.i, %.loopexit.i.i.i
  %lpad.phi.i.i.i = phi { ptr, i32 } [ %lpad.loopexit.i.i.i, %.loopexit.i.i.i ], [ %lpad.loopexit.split-lp.i.i.i, %.loopexit.split-lp.i.i.i ]
  %25 = extractvalue { ptr, i32 } %lpad.phi.i.i.i, 0
  tail call void @__clang_call_terminate(ptr %25) #12
  unreachable

_ZN7rocksdb9CleanableD2Ev.exit.i.i:               ; preds = %.noexc1.i.i.i, %.noexc.i.i.i, %8
  tail call void @_ZdlPvm(ptr noundef nonnull align 8 dereferenceable(36) %4, i64 noundef 40) #14
  br label %_ZN7rocksdb18SharedCleanablePtr4Impl5UnrefEv.exit.i

_ZN7rocksdb18SharedCleanablePtr4Impl5UnrefEv.exit.i: ; preds = %_ZN7rocksdb9CleanableD2Ev.exit.i.i, %5
  store ptr null, ptr %0, align 8, !tbaa !25
  br label %_ZN7rocksdb18SharedCleanablePtr5ResetEv.exit

_ZN7rocksdb18SharedCleanablePtr5ResetEv.exit:     ; preds = %3, %_ZN7rocksdb18SharedCleanablePtr4Impl5UnrefEv.exit.i
  %26 = load ptr, ptr %1, align 8, !tbaa !25
  store ptr %26, ptr %0, align 8, !tbaa !25
  %.not5 = icmp eq ptr %26, null
  br i1 %.not5, label %30, label %27

27:                                               ; preds = %_ZN7rocksdb18SharedCleanablePtr5ResetEv.exit
  %28 = getelementptr inbounds nuw i8, ptr %26, i64 32
  %29 = atomicrmw add ptr %28, i32 1 monotonic, align 4
  br label %30

30:                                               ; preds = %_ZN7rocksdb18SharedCleanablePtr5ResetEv.exit, %27, %2
  ret ptr %0
}